; Function Attrs: nounwind uwtable
define ptr @l_Array_foldrMUnsafe_fold___at_Lean_Meta_Hint_Suggestions_toHintMessage___spec__38(ptr noundef readnone captures(none) %0, ptr noundef readnone captures(none) %1, ptr noundef readonly captures(none) %2, i64 noundef %3, i64 noundef %4, ptr noundef %5) local_unnamed_addr #0 {
  %.not34 = icmp eq i64 %3, %4
  br i1 %.not34, label %._crit_edge, label %.lr.ph

.lr.ph:                                           ; preds = %6
  %7 = getelementptr inbounds nuw i8, ptr %2, i64 24
  br label %8

8:                                                ; preds = %.lr.ph, %lean_dec.exit
  %.01836 = phi i64 [ %3, %.lr.ph ], [ %9, %lean_dec.exit ]
  %.02035 = phi ptr [ %5, %.lr.ph ], [ %29, %lean_dec.exit ]
  %9 = add i64 %.01836, -1
  %10 = getelementptr inbounds nuw [0 x ptr], ptr %7, i64 0, i64 %9
  %11 = load ptr, ptr %10, align 8, !tbaa !4
  %12 = ptrtoint ptr %11 to i64
  %13 = and i64 %12, 1
  %.not.i25 = icmp eq i64 %13, 0
  br i1 %.not.i25, label %14, label %lean_array_uget.exit

14:                                               ; preds = %8
  %.val.i.i = load i32, ptr %11, align 4, !tbaa !8
  %15 = icmp sgt i32 %.val.i.i, 0
  br i1 %15, label %16, label %18, !prof !11

16:                                               ; preds = %14
  %17 = add nuw i32 %.val.i.i, 1
  store i32 %17, ptr %11, align 4, !tbaa !8
  br label %21

18:                                               ; preds = %14
  %.not.i.i = icmp eq i32 %.val.i.i, 0
  br i1 %.not.i.i, label %21, label %19

19:                                               ; preds = %18
  tail call void @lean_inc_ref_cold(ptr noundef nonnull %11) #4
  br label %21

lean_array_uget.exit:                             ; preds = %8
  %20 = tail call ptr @l_Std_DHashMap_Internal_AssocList_foldrM___at_Lean_Meta_Hint_Suggestions_toHintMessage___spec__37(ptr noundef %0, ptr noundef %1, ptr noundef %.02035, ptr noundef %11)
  br label %lean_dec.exit22

21:                                               ; preds = %16, %18, %19
  %22 = tail call ptr @l_Std_DHashMap_Internal_AssocList_foldrM___at_Lean_Meta_Hint_Suggestions_toHintMessage___spec__37(ptr noundef %0, ptr noundef %1, ptr noundef %.02035, ptr noundef nonnull %11)
  %23 = load i32, ptr %11, align 4, !tbaa !8
  %24 = icmp sgt i32 %23, 1
  br i1 %24, label %25, label %27, !prof !11

25:                                               ; preds = %21
  %26 = add nsw i32 %23, -1
  store i32 %26, ptr %11, align 4, !tbaa !8
  br label %lean_dec.exit22

27:                                               ; preds = %21
  %.not.i = icmp eq i32 %23, 0
  br i1 %.not.i, label %lean_dec.exit22, label %28

28:                                               ; preds = %27
  tail call void @lean_dec_ref_cold(ptr noundef nonnull %11) #4
  br label %lean_dec.exit22

lean_dec.exit22:                                  ; preds = %28, %27, %25, %lean_array_uget.exit
  %29 = phi ptr [ %20, %lean_array_uget.exit ], [ %22, %25 ], [ %22, %27 ], [ %22, %28 ]
  %30 = ptrtoint ptr %.02035 to i64
  %31 = and i64 %30, 1
  %.not33 = icmp eq i64 %31, 0
  br i1 %.not33, label %32, label %lean_dec.exit

32:                                               ; preds = %lean_dec.exit22
  %33 = load i32, ptr %.02035, align 4, !tbaa !8
  %34 = icmp sgt i32 %33, 1
  br i1 %34, label %35, label %37, !prof !11

35:                                               ; preds = %32
  %36 = add nsw i32 %33, -1
  store i32 %36, ptr %.02035, align 4, !tbaa !8
  br label %lean_dec.exit

37:                                               ; preds = %32
  %.not.i23 = icmp eq i32 %33, 0
  br i1 %.not.i23, label %lean_dec.exit, label %38

38:                                               ; preds = %37
  tail call void @lean_dec_ref_cold(ptr noundef nonnull %.02035) #4
  br label %lean_dec.exit

lean_dec.exit:                                    ; preds = %lean_dec.exit22, %35, %37, %38
  %.not = icmp eq i64 %9, %4
  br i1 %.not, label %._crit_edge, label %8

._crit_edge:                                      ; preds = %lean_dec.exit, %6
  %.020.lcssa = phi ptr [ %5, %6 ], [ %29, %lean_dec.exit ]
  ret ptr %.020.lcssa
}